target datalayout = "e-m:e-p270:32:32-p271:32:32-p272:64:64-i64:64-i128:128-f80:128-n8:16:32:64-S128"
target triple = "x86_64-pc-linux-gnu"

%struct.PJconsts = type <{ ptr, ptr, ptr, ptr, ptr, ptr, ptr, ptr, ptr, ptr, ptr, ptr, i32, [4 x i8], ptr, ptr, ptr, ptr, ptr, ptr, ptr, ptr, double, double, double, double, double, double, double, double, double, double, double, double, double, double, double, double, double, double, double, double, double, double, i32, i32, i32, i32, i32, i32, i32, i32, i32, i32, i32, [4 x i8], ptr, ptr, ptr, ptr, ptr, ptr, double, double, double, double, double, double, double, double, double, double, double, i32, [4 x i8], [7 x double], i32, [4 x i8], ptr, ptr, double, double, i32, [4 x i8], %"class.std::shared_ptr", i8, [7 x i8], double, i8, [7 x i8], %"class.std::__cxx11::basic_string", %"class.std::__cxx11::basic_string", %"class.std::__cxx11::basic_string", i8, [7 x i8], %"class.std::vector", i32, [4 x i8], %"class.std::vector.3", i32, i8, i8, i8, i8 }>
%"class.std::shared_ptr" = type { %"class.std::__shared_ptr" }
%"class.std::__shared_ptr" = type { ptr, %"class.std::__shared_count" }
%"class.std::__shared_count" = type { ptr }
%"class.std::__cxx11::basic_string" = type { %"struct.std::__cxx11::basic_string<char>::_Alloc_hider", i64, %union.anon }
%"struct.std::__cxx11::basic_string<char>::_Alloc_hider" = type { ptr }
%union.anon = type { i64, [8 x i8] }
%"class.std::vector" = type { %"struct.std::_Vector_base" }
%"struct.std::_Vector_base" = type { %"struct.std::_Vector_base<osgeo::proj::operation::GridDescription, std::allocator<osgeo::proj::operation::GridDescription>>::_Vector_impl" }
%"struct.std::_Vector_base<osgeo::proj::operation::GridDescription, std::allocator<osgeo::proj::operation::GridDescription>>::_Vector_impl" = type { %"struct.std::_Vector_base<osgeo::proj::operation::GridDescription, std::allocator<osgeo::proj::operation::GridDescription>>::_Vector_impl_data" }
%"struct.std::_Vector_base<osgeo::proj::operation::GridDescription, std::allocator<osgeo::proj::operation::GridDescription>>::_Vector_impl_data" = type { ptr, ptr, ptr }
%"class.std::vector.3" = type { %"struct.std::_Vector_base.4" }
%"struct.std::_Vector_base.4" = type { %"struct.std::_Vector_base<PJCoordOperation, std::allocator<PJCoordOperation>>::_Vector_impl" }
%"struct.std::_Vector_base<PJCoordOperation, std::allocator<PJCoordOperation>>::_Vector_impl" = type { %"struct.std::_Vector_base<PJCoordOperation, std::allocator<PJCoordOperation>>::_Vector_impl_data" }
%"struct.std::_Vector_base<PJCoordOperation, std::allocator<PJCoordOperation>>::_Vector_impl_data" = type { ptr, ptr, ptr }
%"struct.(anonymous namespace)::pj_putp6" = type { double, double, double, double, double }
%struct.PJ_LP = type { double, double }
%struct.PJ_XY = type { double, double }

; Function Attrs: mustprogress nounwind uwtable
define internal { double, double } @_ZL15putp6_s_forward5PJ_LPP8PJconsts(double %0, double %1, ptr noundef %2) #3 {
  %4 = alloca %struct.PJ_XY, align 8
  %5 = alloca %struct.PJ_LP, align 8
  %6 = alloca ptr, align 8
  %7 = alloca ptr, align 8
  %8 = alloca i32, align 4
  %9 = alloca double, align 8
  %10 = alloca double, align 8
  %11 = alloca double, align 8
  %12 = alloca double, align 8
  %13 = getelementptr inbounds { double, double }, ptr %5, i32 0, i32 0
  store double %0, ptr %13, align 8
  %14 = getelementptr inbounds { double, double }, ptr %5, i32 0, i32 1
  store double %1, ptr %14, align 8
  store ptr %2, ptr %6, align 8
  call void @llvm.memset.p0.i64(ptr align 8 %4, i8 0, i64 16, i1 false)
  %15 = load ptr, ptr %6, align 8
  %16 = getelementptr inbounds %struct.PJconsts, ptr %15, i32 0, i32 11
  %17 = load ptr, ptr %16, align 8
  store ptr %17, ptr %7, align 8
  %18 = load ptr, ptr %7, align 8
  %19 = getelementptr inbounds %"struct.(anonymous namespace)::pj_putp6", ptr %18, i32 0, i32 3
  %20 = load double, ptr %19, align 8
  %21 = getelementptr inbounds %struct.PJ_LP, ptr %5, i32 0, i32 1
  %22 = load double, ptr %21, align 8
  %23 = call double @sin(double noundef %22) #8
  %24 = fmul double %20, %23
  store double %24, ptr %9, align 8
  %25 = getelementptr inbounds %struct.PJ_LP, ptr %5, i32 0, i32 1
  %26 = load double, ptr %25, align 8
  %27 = fmul double %26, 0x3FF1A47C7EABAC97
  store double %27, ptr %25, align 8
  store i32 10, ptr %8, align 4
  br label %28

28:                                               ; preds = %69, %3
  %29 = load i32, ptr %8, align 4
  %30 = icmp ne i32 %29, 0
  br i1 %30, label %31, label %72

31:                                               ; preds = %28
  %32 = getelementptr inbounds %struct.PJ_LP, ptr %5, i32 0, i32 1
  %33 = load double, ptr %32, align 8
  %34 = getelementptr inbounds %struct.PJ_LP, ptr %5, i32 0, i32 1
  %35 = load double, ptr %34, align 8
  %36 = call double @llvm.fmuladd.f64(double %33, double %35, double 1.000000e+00)
  %37 = call double @sqrt(double noundef %36) #8
  store double %37, ptr %10, align 8
  %38 = load ptr, ptr %7, align 8
  %39 = getelementptr inbounds %"struct.(anonymous namespace)::pj_putp6", ptr %38, i32 0, i32 2
  %40 = load double, ptr %39, align 8
  %41 = load double, ptr %10, align 8
  %42 = fsub double %40, %41
  %43 = getelementptr inbounds %struct.PJ_LP, ptr %5, i32 0, i32 1
  %44 = load double, ptr %43, align 8
  %45 = getelementptr inbounds %struct.PJ_LP, ptr %5, i32 0, i32 1
  %46 = load double, ptr %45, align 8
  %47 = load double, ptr %10, align 8
  %48 = fadd double %46, %47
  %49 = call double @log(double noundef %48) #8
  %50 = fneg double %49
  %51 = call double @llvm.fmuladd.f64(double %42, double %44, double %50)
  %52 = load double, ptr %9, align 8
  %53 = fsub double %51, %52
  %54 = load ptr, ptr %7, align 8
  %55 = getelementptr inbounds %"struct.(anonymous namespace)::pj_putp6", ptr %54, i32 0, i32 2
  %56 = load double, ptr %55, align 8
  %57 = load double, ptr %10, align 8
  %58 = call double @llvm.fmuladd.f64(double -2.000000e+00, double %57, double %56)
  %59 = fdiv double %53, %58
  store double %59, ptr %11, align 8
  %60 = load double, ptr %11, align 8
  %61 = getelementptr inbounds %struct.PJ_LP, ptr %5, i32 0, i32 1
  %62 = load double, ptr %61, align 8
  %63 = fsub double %62, %60
  store double %63, ptr %61, align 8
  %64 = load double, ptr %11, align 8
  %65 = call double @llvm.fabs.f64(double %64)
  %66 = fcmp olt double %65, 1.000000e-10
  br i1 %66, label %67, label %68

67:                                               ; preds = %31
  br label %72

68:                                               ; preds = %31
  br label %69

69:                                               ; preds = %68
  %70 = load i32, ptr %8, align 4
  %71 = add nsw i32 %70, -1
  store i32 %71, ptr %8, align 4
  br label %28, !llvm.loop !4

72:                                               ; preds = %67, %28
  %73 = load i32, ptr %8, align 4
  %74 = icmp ne i32 %73, 0
  br i1 %74, label %80, label %75

75:                                               ; preds = %72
  %76 = load double, ptr %9, align 8
  %77 = fcmp olt double %76, 0.000000e+00
  %78 = select i1 %77, double 0xBFFBB67AE8584CA9, double 0x3FFBB67AE8584CA9
  %79 = getelementptr inbounds %struct.PJ_LP, ptr %5, i32 0, i32 1
  store double %78, ptr %79, align 8
  store double 2.000000e+00, ptr %12, align 8
  br label %87

80:                                               ; preds = %72
  %81 = getelementptr inbounds %struct.PJ_LP, ptr %5, i32 0, i32 1
  %82 = load double, ptr %81, align 8
  %83 = getelementptr inbounds %struct.PJ_LP, ptr %5, i32 0, i32 1
  %84 = load double, ptr %83, align 8
  %85 = call double @llvm.fmuladd.f64(double %82, double %84, double 1.000000e+00)
  %86 = call double @sqrt(double noundef %85) #8
  store double %86, ptr %12, align 8
  br label %87

87:                                               ; preds = %80, %75
  %88 = load ptr, ptr %7, align 8
  %89 = getelementptr inbounds %"struct.(anonymous namespace)::pj_putp6", ptr %88, i32 0, i32 0
  %90 = load double, ptr %89, align 8
  %91 = getelementptr inbounds %struct.PJ_LP, ptr %5, i32 0, i32 0
  %92 = load double, ptr %91, align 8
  %93 = fmul double %90, %92
  %94 = load ptr, ptr %7, align 8
  %95 = getelementptr inbounds %"struct.(anonymous namespace)::pj_putp6", ptr %94, i32 0, i32 4
  %96 = load double, ptr %95, align 8
  %97 = load double, ptr %12, align 8
  %98 = fsub double %96, %97
  %99 = fmul double %93, %98
  %100 = getelementptr inbounds %struct.PJ_XY, ptr %4, i32 0, i32 0
  store double %99, ptr %100, align 8
  %101 = load ptr, ptr %7, align 8
  %102 = getelementptr inbounds %"struct.(anonymous namespace)::pj_putp6", ptr %101, i32 0, i32 1
  %103 = load double, ptr %102, align 8
  %104 = getelementptr inbounds %struct.PJ_LP, ptr %5, i32 0, i32 1
  %105 = load double, ptr %104, align 8
  %106 = fmul double %103, %105
  %107 = getelementptr inbounds %struct.PJ_XY, ptr %4, i32 0, i32 1
  store double %106, ptr %107, align 8
  %108 = load { double, double }, ptr %4, align 8
  ret { double, double } %108
}