; Function Attrs: mustprogress nofree nounwind memory(readwrite, inaccessiblemem: write) uwtable
define internal { double, double } @_ZL15putp6_s_forward5PJ_LPP8PJconsts(double %0, double %1, ptr nocapture noundef readonly %2) #3 {
  %4 = getelementptr inbounds i8, ptr %2, i64 88
  %5 = load ptr, ptr %4, align 8
  %6 = getelementptr inbounds i8, ptr %5, i64 24
  %7 = load double, ptr %6, align 8
  %8 = tail call double @sin(double noundef %1) #8
  %9 = fmul double %7, %8
  %10 = fmul double %1, 0x3FF1A47C7EABAC97
  %11 = getelementptr inbounds i8, ptr %5, i64 16
  %.pre = load double, ptr %11, align 8
  br label %14

12:                                               ; preds = %14
  %13 = add nsw i32 %.02730, -1
  %.not = icmp eq i32 %13, 0
  br i1 %.not, label %29, label %14, !llvm.loop !4

14:                                               ; preds = %3, %12
  %15 = phi double [ %.pre, %3 ], [ %23, %12 ]
  %.sroa.2.031 = phi double [ %10, %3 ], [ %26, %12 ]
  %.02730 = phi i32 [ 10, %3 ], [ %13, %12 ]
  %16 = tail call double @llvm.fmuladd.f64(double %.sroa.2.031, double %.sroa.2.031, double 1.000000e+00)
  %sqrt = tail call double @llvm.sqrt.f64(double %16)
  %17 = fsub double %15, %sqrt
  %18 = fadd double %.sroa.2.031, %sqrt
  %19 = tail call double @log(double noundef %18) #8
  %20 = fneg double %19
  %21 = tail call double @llvm.fmuladd.f64(double %17, double %.sroa.2.031, double %20)
  %22 = fsub double %21, %9
  %23 = load double, ptr %11, align 8
  %24 = tail call double @llvm.fmuladd.f64(double %sqrt, double -2.000000e+00, double %23)
  %25 = fdiv double %22, %24
  %26 = fsub double %.sroa.2.031, %25
  %27 = tail call double @llvm.fabs.f64(double %25)
  %28 = fcmp olt double %27, 1.000000e-10
  br i1 %28, label %32, label %12

29:                                               ; preds = %12
  %30 = fcmp olt double %9, 0.000000e+00
  %31 = select i1 %30, double 0xBFFBB67AE8584CA9, double 0x3FFBB67AE8584CA9
  br label %34

32:                                               ; preds = %14
  %33 = tail call double @llvm.fmuladd.f64(double %26, double %26, double 1.000000e+00)
  %sqrt29 = tail call double @llvm.sqrt.f64(double %33)
  br label %34

34:                                               ; preds = %32, %29
  %.sroa.2.2 = phi double [ %26, %32 ], [ %31, %29 ]
  %.0 = phi double [ %sqrt29, %32 ], [ 2.000000e+00, %29 ]
  %35 = load double, ptr %5, align 8
  %36 = fmul double %35, %0
  %37 = getelementptr inbounds i8, ptr %5, i64 32
  %38 = load double, ptr %37, align 8
  %39 = fsub double %38, %.0
  %40 = fmul double %36, %39
  %41 = getelementptr inbounds i8, ptr %5, i64 8
  %42 = load double, ptr %41, align 8
  %43 = fmul double %.sroa.2.2, %42
  %.fca.0.insert = insertvalue { double, double } poison, double %40, 0
  %.fca.1.insert = insertvalue { double, double } %.fca.0.insert, double %43, 1
  ret { double, double } %.fca.1.insert
}